; Function Attrs: mustprogress uwtable
define internal void @_ZN12_GLOBAL__N_18Abc9Pass11clear_flagsEv(ptr noundef nonnull align 8 dereferenceable(616) %0) unnamed_addr #4 align 2 personality ptr @__gxx_personality_v0 {
  %2 = alloca %"class.std::__cxx11::basic_string", align 8
  %3 = alloca %"class.std::allocator", align 1
  call void @_ZNSaIcEC1Ev(ptr noundef nonnull align 1 dereferenceable(1) %3) #22
  invoke void @_ZNSt7__cxx1112basic_stringIcSt11char_traitsIcESaIcEEC1EPKcRKS3_(ptr noundef nonnull align 8 dereferenceable(32) %2, ptr noundef nonnull @.str.70, ptr noundef nonnull align 1 dereferenceable(1) %3)
          to label %4 unwind label %15

4:                                                ; preds = %1
  %5 = getelementptr inbounds i8, ptr %0, i64 184
  invoke void @_ZNSt7__cxx1118basic_stringstreamIcSt11char_traitsIcESaIcEE3strERKNS_12basic_stringIcS2_S3_EE(ptr noundef nonnull align 8 dereferenceable(128) %5, ptr noundef nonnull align 8 dereferenceable(32) %2)
          to label %6 unwind label %17

6:                                                ; preds = %4
  call void @_ZNSt7__cxx1112basic_stringIcSt11char_traitsIcESaIcEED1Ev(ptr noundef nonnull align 8 dereferenceable(32) %2) #22
  call void @_ZNSaIcED1Ev(ptr noundef nonnull align 1 dereferenceable(1) %3) #22
  %7 = getelementptr inbounds i8, ptr %0, i64 200
  %8 = call noundef nonnull align 8 dereferenceable(8) ptr @_ZStlsISt11char_traitsIcEERSt13basic_ostreamIcT_ES5_PKc(ptr noundef nonnull align 8 dereferenceable(8) %7, ptr noundef nonnull @.str.71)
  %9 = getelementptr inbounds i8, ptr %0, i64 576
  store i8 0, ptr %9, align 8
  %10 = getelementptr inbounds i8, ptr %0, i64 577
  store i8 1, ptr %10, align 1
  %11 = getelementptr inbounds i8, ptr %0, i64 578
  store i8 0, ptr %11, align 2
  %12 = getelementptr inbounds i8, ptr %0, i64 580
  store i32 0, ptr %12, align 4
  %13 = getelementptr inbounds i8, ptr %0, i64 584
  %14 = call noundef nonnull align 8 dereferenceable(32) ptr @_ZNSt7__cxx1112basic_stringIcSt11char_traitsIcESaIcEEaSEPKc(ptr noundef nonnull align 8 dereferenceable(32) %13, ptr noundef nonnull @.str.70)
  ret void

15:                                               ; preds = %1
  %16 = landingpad { ptr, i32 }
          cleanup
  br label %19

17:                                               ; preds = %4
  %18 = landingpad { ptr, i32 }
          cleanup
  call void @_ZNSt7__cxx1112basic_stringIcSt11char_traitsIcESaIcEED1Ev(ptr noundef nonnull align 8 dereferenceable(32) %2) #22
  br label %19

19:                                               ; preds = %17, %15
  %.pn = phi { ptr, i32 } [ %18, %17 ], [ %16, %15 ]
  call void @_ZNSaIcED1Ev(ptr noundef nonnull align 1 dereferenceable(1) %3) #22
  resume { ptr, i32 } %.pn
}